; Function Attrs: nounwind uwtable
define void @validateHamilParams(i32 noundef %0, i32 noundef %1, ptr noundef %2) local_unnamed_addr #3 {
  %4 = icmp slt i32 %0, 1
  %5 = icmp slt i32 %1, 1
  %.not3 = or i1 %4, %5
  br i1 %.not3, label %6, label %QuESTAssert.exit

6:                                                ; preds = %3
  tail call void @invalidQuESTInputError(ptr noundef nonnull @.str.60, ptr noundef %2)
  br label %QuESTAssert.exit

QuESTAssert.exit:                                 ; preds = %3, %6
  ret void
}